; Function Attrs: null_pointer_is_valid sspstrong uwtable
define internal fastcc zeroext i8 @dissect_session_request(ptr noundef %0, ptr noundef %1, ptr noundef %2, ptr noundef %3, ptr noundef captures(none) %4) unnamed_addr #0 {
  %6 = alloca i8, align 1
  %7 = alloca i32, align 4
  call void @llvm.lifetime.start.p0(i64 1, ptr nonnull %6) #11
  store i8 1, ptr %6, align 1
  call void @llvm.lifetime.start.p0(i64 4, ptr nonnull %7) #11
  %8 = load i32, ptr %4, align 4
  store i32 %8, ptr %7, align 4
  %9 = call fastcc zeroext i8 @dissect_hpai(ptr noundef %0, ptr noundef %1, ptr noundef %2, ptr noundef %3, ptr noundef nonnull %7, ptr noundef nonnull %6, ptr noundef nonnull @.str.82, i8 noundef zeroext 1)
  %.not = icmp eq i8 %9, 0
  %.pre = load i32, ptr %7, align 4
  br i1 %.not, label %27, label %10

10:                                               ; preds = %5
  %11 = call i32 @tvb_captured_length_remaining(ptr noundef %0, i32 noundef %.pre)
  %12 = icmp slt i32 %11, 1
  br i1 %12, label %13, label %.lr.ph.i

13:                                               ; preds = %10
  %14 = call ptr (ptr, ptr, ptr, ptr, i32, i32, ptr, ...) @proto_tree_add_expert_format(ptr noundef %3, ptr noundef %1, ptr noundef nonnull @ei_knxip_error, ptr noundef %0, i32 noundef %.pre, i32 noundef 0, ptr noundef nonnull @.str.477)
  store i8 0, ptr %6, align 1
  br label %27

.lr.ph.i:                                         ; preds = %10
  %15 = load i32, ptr @hf_bytes, align 4
  %16 = call ptr (ptr, i32, ptr, i32, i32, ptr, ptr, ...) @proto_tree_add_bytes_format(ptr noundef %3, i32 noundef %15, ptr noundef %0, i32 noundef %.pre, i32 noundef %11, ptr noundef null, ptr noundef nonnull @.str.343, ptr noundef nonnull @.str.478)
  br label %.lr.ph.split.us.split.us.i

.lr.ph.split.us.split.us.i:                       ; preds = %.lr.ph.split.us.split.us.i, %.lr.ph.i
  %.029.us.us.i = phi i32 [ %19, %.lr.ph.split.us.split.us.i ], [ %.pre, %.lr.ph.i ]
  %.02428.us.us.i = phi i32 [ %20, %.lr.ph.split.us.split.us.i ], [ %11, %.lr.ph.i ]
  %17 = call zeroext i8 @tvb_get_uint8(ptr noundef %0, i32 noundef %.029.us.us.i)
  %18 = zext i8 %17 to i32
  call void (ptr, ptr, ...) @proto_item_append_text(ptr noundef %16, ptr noundef nonnull @.str.337, i32 noundef %18)
  %19 = add i32 %.029.us.us.i, 1
  %20 = add nsw i32 %.02428.us.us.i, -1
  %21 = icmp samesign ugt i32 %.02428.us.us.i, 1
  br i1 %21, label %.lr.ph.split.us.split.us.i, label %knxip_tree_add_data.exit, !llvm.loop !29

knxip_tree_add_data.exit:                         ; preds = %.lr.ph.split.us.split.us.i
  %.not18 = icmp eq i32 %11, 32
  br i1 %.not18, label %24, label %22

22:                                               ; preds = %knxip_tree_add_data.exit
  call void (ptr, ptr, ...) @proto_item_prepend_text(ptr noundef %16, ptr noundef nonnull @.str.231)
  %23 = call ptr (ptr, ptr, ptr, ptr, ...) @expert_add_info_format(ptr noundef %1, ptr noundef %16, ptr noundef nonnull @ei_knxip_error, ptr noundef nonnull @.str.333, i32 noundef 32)
  store i8 0, ptr %6, align 1
  br label %24

24:                                               ; preds = %22, %knxip_tree_add_data.exit
  %25 = load i32, ptr %7, align 4
  %26 = add i32 %25, %11
  br label %27

27:                                               ; preds = %13, %24, %5
  %28 = phi i32 [ %.pre, %13 ], [ %26, %24 ], [ %.pre, %5 ]
  store i32 %28, ptr %4, align 4
  %29 = load i8, ptr %6, align 1
  call void @llvm.lifetime.end.p0(i64 4, ptr nonnull %7) #11
  call void @llvm.lifetime.end.p0(i64 1, ptr nonnull %6) #11
  ret i8 %29
}